target datalayout = "e-m:e-p270:32:32-p271:32:32-p272:64:64-i64:64-i128:128-f80:128-n8:16:32:64-S128"
target triple = "x86_64-pc-linux-gnu"

%class.DistributionTable = type { i32, %"class.std::vector", %"class.std::vector" }
%"class.std::vector" = type { %"struct.std::_Vector_base" }
%"struct.std::_Vector_base" = type { %"struct.std::_Vector_base<int, std::allocator<int>>::_Vector_impl" }
%"struct.std::_Vector_base<int, std::allocator<int>>::_Vector_impl" = type { %"struct.std::_Vector_base<int, std::allocator<int>>::_Vector_impl_data" }
%"struct.std::_Vector_base<int, std::allocator<int>>::_Vector_impl_data" = type { ptr, ptr, ptr }
%class.VectorFilter = type <{ %class.Filter, %"class.std::vector.0", ptr, i32, [4 x i8] }>
%class.Filter = type { ptr, %"class.std::bitset" }
%"class.std::bitset" = type { %"struct.std::_Base_bitset" }
%"struct.std::_Base_bitset" = type { i64 }
%"class.std::vector.0" = type { %"struct.std::_Vector_base.1" }
%"struct.std::_Vector_base.1" = type { %"struct.std::_Vector_base<unsigned int, std::allocator<unsigned int>>::_Vector_impl" }
%"struct.std::_Vector_base<unsigned int, std::allocator<unsigned int>>::_Vector_impl" = type { %"struct.std::_Vector_base<unsigned int, std::allocator<unsigned int>>::_Vector_impl_data" }
%"struct.std::_Vector_base<unsigned int, std::allocator<unsigned int>>::_Vector_impl_data" = type { ptr, ptr, ptr }
%class.Type = type { i32, ptr, i32, %"class.std::vector.0", %"class.std::vector.5", i32, i8, i8, i8, i8, i8, %"class.std::vector.10", %"class.std::vector" }
%"class.std::vector.5" = type { %"struct.std::_Vector_base.6" }
%"struct.std::_Vector_base.6" = type { %"struct.std::_Vector_base<const Type *, std::allocator<const Type *>>::_Vector_impl" }
%"struct.std::_Vector_base<const Type *, std::allocator<const Type *>>::_Vector_impl" = type { %"struct.std::_Vector_base<const Type *, std::allocator<const Type *>>::_Vector_impl_data" }
%"struct.std::_Vector_base<const Type *, std::allocator<const Type *>>::_Vector_impl_data" = type { ptr, ptr, ptr }
%"class.std::vector.10" = type { %"struct.std::_Vector_base.11" }
%"struct.std::_Vector_base.11" = type { %"struct.std::_Vector_base<CVQualifiers, std::allocator<CVQualifiers>>::_Vector_impl" }
%"struct.std::_Vector_base<CVQualifiers, std::allocator<CVQualifiers>>::_Vector_impl" = type { %"struct.std::_Vector_base<CVQualifiers, std::allocator<CVQualifiers>>::_Vector_impl_data" }
%"struct.std::_Vector_base<CVQualifiers, std::allocator<CVQualifiers>>::_Vector_impl_data" = type { ptr, ptr, ptr }

@_ZN15StatementAssign15assignOpsTable_E = dso_local global %class.DistributionTable zeroinitializer, align 8

; Function Attrs: mustprogress nounwind uwtable
define linkonce_odr dso_local noundef zeroext i1 @_ZNK4Type8is_floatEv(ptr noundef nonnull align 8 dereferenceable(136) %0) #4 comdat align 2 {
  %2 = alloca ptr, align 8
  store ptr %0, ptr %2, align 8
  %3 = load ptr, ptr %2, align 8
  %4 = getelementptr inbounds %class.Type, ptr %3, i32 0, i32 0
  %5 = load i32, ptr %4, align 8
  %6 = icmp eq i32 %5, 0
  br i1 %6, label %7, label %11

7:                                                ; preds = %1
  %8 = getelementptr inbounds %class.Type, ptr %3, i32 0, i32 2
  %9 = load i32, ptr %8, align 8
  %10 = icmp eq i32 %9, 10
  br label %11

11:                                               ; preds = %7, %1
  %12 = phi i1 [ false, %1 ], [ %10, %7 ]
  ret i1 %12
}

; Function Attrs: mustprogress uwtable
define dso_local noundef i32 @_ZN15StatementAssign20AssignOpsProbabilityEPK4Type(ptr noundef %0) #5 align 2 personality ptr @__gxx_personality_v0 {
  %2 = alloca i32, align 4
  %3 = alloca ptr, align 8
  %4 = alloca %class.VectorFilter, align 8
  %5 = alloca ptr, align 8
  %6 = alloca i32, align 4
  %7 = alloca i32, align 4
  store ptr %0, ptr %3, align 8
  %8 = call noundef zeroext i1 @_ZN9CGOptions19compound_assignmentEv()
  br i1 %8, label %10, label %9

9:                                                ; preds = %1
  store i32 0, ptr %2, align 4
  br label %51

10:                                               ; preds = %1
  %11 = load ptr, ptr %3, align 8
  %12 = icmp ne ptr %11, null
  br i1 %12, label %13, label %23

13:                                               ; preds = %10
  %14 = load ptr, ptr %3, align 8
  %15 = getelementptr inbounds %class.Type, ptr %14, i32 0, i32 0
  %16 = load i32, ptr %15, align 8
  %17 = icmp ne i32 %16, 0
  br i1 %17, label %22, label %18

18:                                               ; preds = %13
  %19 = load ptr, ptr %3, align 8
  %20 = call noundef ptr @_ZNK4Type13get_base_typeEv(ptr noundef nonnull align 8 dereferenceable(136) %19)
  %21 = call noundef zeroext i1 @_ZNK4Type8is_floatEv(ptr noundef nonnull align 8 dereferenceable(136) %20)
  br i1 %21, label %22, label %23

22:                                               ; preds = %18, %13
  store i32 0, ptr %2, align 4
  br label %51

23:                                               ; preds = %18, %10
  call void @_ZN12VectorFilterC1EP17DistributionTable(ptr noundef nonnull align 8 dereferenceable(52) %4, ptr noundef @_ZN15StatementAssign15assignOpsTable_E)
  %24 = load ptr, ptr %3, align 8
  %25 = icmp ne ptr %24, null
  br i1 %25, label %26, label %43

26:                                               ; preds = %23
  %27 = load ptr, ptr %3, align 8
  %28 = invoke noundef zeroext i1 @_ZNK4Type9is_signedEv(ptr noundef nonnull align 8 dereferenceable(136) %27)
          to label %29 unwind label %39

29:                                               ; preds = %26
  br i1 %28, label %30, label %43

30:                                               ; preds = %29
  %31 = invoke noundef nonnull align 8 dereferenceable(52) ptr @_ZN12VectorFilter3addEj(ptr noundef nonnull align 8 dereferenceable(52) %4, i32 noundef 11)
          to label %32 unwind label %39

32:                                               ; preds = %30
  %33 = invoke noundef nonnull align 8 dereferenceable(52) ptr @_ZN12VectorFilter3addEj(ptr noundef nonnull align 8 dereferenceable(52) %31, i32 noundef 12)
          to label %34 unwind label %39

34:                                               ; preds = %32
  %35 = invoke noundef nonnull align 8 dereferenceable(52) ptr @_ZN12VectorFilter3addEj(ptr noundef nonnull align 8 dereferenceable(52) %33, i32 noundef 13)
          to label %36 unwind label %39

36:                                               ; preds = %34
  %37 = invoke noundef nonnull align 8 dereferenceable(52) ptr @_ZN12VectorFilter3addEj(ptr noundef nonnull align 8 dereferenceable(52) %35, i32 noundef 14)
          to label %38 unwind label %39

38:                                               ; preds = %36
  br label %43

39:                                               ; preds = %47, %45, %43, %36, %34, %32, %30, %26
  %40 = landingpad { ptr, i32 }
          cleanup
  %41 = extractvalue { ptr, i32 } %40, 0
  store ptr %41, ptr %5, align 8
  %42 = extractvalue { ptr, i32 } %40, 1
  store i32 %42, ptr %6, align 4
  call void @_ZN12VectorFilterD1Ev(ptr noundef nonnull align 8 dereferenceable(52) %4) #3
  br label %53

43:                                               ; preds = %38, %29, %23
  %44 = invoke noundef i32 @_ZNK12VectorFilter12get_max_probEv(ptr noundef nonnull align 8 dereferenceable(52) %4)
          to label %45 unwind label %39

45:                                               ; preds = %43
  %46 = invoke noundef i32 @_Z8rnd_uptojPK6FilterPKNSt7__cxx1112basic_stringIcSt11char_traitsIcESaIcEEE(i32 noundef %44, ptr noundef %4, ptr noundef null)
          to label %47 unwind label %39

47:                                               ; preds = %45
  store i32 %46, ptr %7, align 4
  %48 = load i32, ptr %7, align 4
  %49 = invoke noundef i32 @_ZNK12VectorFilter6lookupEi(ptr noundef nonnull align 8 dereferenceable(52) %4, i32 noundef %48)
          to label %50 unwind label %39

50:                                               ; preds = %47
  store i32 %49, ptr %2, align 4
  call void @_ZN12VectorFilterD1Ev(ptr noundef nonnull align 8 dereferenceable(52) %4) #3
  br label %51

51:                                               ; preds = %50, %22, %9
  %52 = load i32, ptr %2, align 4
  ret i32 %52

53:                                               ; preds = %39
  %54 = load ptr, ptr %5, align 8
  %55 = load i32, ptr %6, align 4
  %56 = insertvalue { ptr, i32 } poison, ptr %54, 0
  %57 = insertvalue { ptr, i32 } %56, i32 %55, 1
  resume { ptr, i32 } %57
}