; Function Attrs: mustprogress uwtable
define dso_local noundef i32 @_ZN15StatementAssign20AssignOpsProbabilityEPK4Type(ptr noundef %0) local_unnamed_addr #4 align 2 personality ptr @__gxx_personality_v0 {
  %2 = alloca %class.VectorFilter, align 8
  %3 = tail call noundef zeroext i1 @_ZN9CGOptions19compound_assignmentEv()
  br i1 %3, label %4, label %35

4:                                                ; preds = %1
  %.not = icmp eq ptr %0, null
  br i1 %.not, label %.critedge, label %5

5:                                                ; preds = %4
  %6 = load i32, ptr %0, align 8
  %.not9 = icmp eq i32 %6, 0
  br i1 %.not9, label %7, label %35

7:                                                ; preds = %5
  %8 = tail call noundef ptr @_ZNK4Type13get_base_typeEv(ptr noundef nonnull align 8 dereferenceable(136) %0)
  %9 = load i32, ptr %8, align 8
  %10 = icmp eq i32 %9, 0
  %11 = getelementptr inbounds i8, ptr %8, i64 16
  %12 = load i32, ptr %11, align 8
  %13 = icmp eq i32 %12, 10
  %14 = select i1 %10, i1 %13, i1 false
  br i1 %14, label %35, label %15

15:                                               ; preds = %7
  call void @_ZN12VectorFilterC1EP17DistributionTable(ptr noundef nonnull align 8 dereferenceable(52) %2, ptr noundef nonnull @_ZN15StatementAssign15assignOpsTable_E)
  %16 = invoke noundef zeroext i1 @_ZNK4Type9is_signedEv(ptr noundef nonnull align 8 dereferenceable(136) %0)
          to label %17 unwind label %26

17:                                               ; preds = %15
  br i1 %16, label %18, label %28

18:                                               ; preds = %17
  %19 = invoke noundef nonnull align 8 dereferenceable(52) ptr @_ZN12VectorFilter3addEj(ptr noundef nonnull align 8 dereferenceable(52) %2, i32 noundef 11)
          to label %20 unwind label %26

20:                                               ; preds = %18
  %21 = invoke noundef nonnull align 8 dereferenceable(52) ptr @_ZN12VectorFilter3addEj(ptr noundef nonnull align 8 dereferenceable(52) %19, i32 noundef 12)
          to label %22 unwind label %26

22:                                               ; preds = %20
  %23 = invoke noundef nonnull align 8 dereferenceable(52) ptr @_ZN12VectorFilter3addEj(ptr noundef nonnull align 8 dereferenceable(52) %21, i32 noundef 13)
          to label %24 unwind label %26

24:                                               ; preds = %22
  %25 = invoke noundef nonnull align 8 dereferenceable(52) ptr @_ZN12VectorFilter3addEj(ptr noundef nonnull align 8 dereferenceable(52) %23, i32 noundef 14)
          to label %28 unwind label %26

26:                                               ; preds = %32, %30, %28, %24, %22, %20, %18, %15
  %27 = landingpad { ptr, i32 }
          cleanup
  call void @_ZN12VectorFilterD1Ev(ptr noundef nonnull align 8 dereferenceable(52) %2) #19
  resume { ptr, i32 } %27

.critedge:                                        ; preds = %4
  call void @_ZN12VectorFilterC1EP17DistributionTable(ptr noundef nonnull align 8 dereferenceable(52) %2, ptr noundef nonnull @_ZN15StatementAssign15assignOpsTable_E)
  br label %28

28:                                               ; preds = %.critedge, %24, %17
  %29 = invoke noundef i32 @_ZNK12VectorFilter12get_max_probEv(ptr noundef nonnull align 8 dereferenceable(52) %2)
          to label %30 unwind label %26

30:                                               ; preds = %28
  %31 = invoke noundef i32 @_Z8rnd_uptojPK6FilterPKNSt7__cxx1112basic_stringIcSt11char_traitsIcESaIcEEE(i32 noundef %29, ptr noundef nonnull %2, ptr noundef null)
          to label %32 unwind label %26

32:                                               ; preds = %30
  %33 = invoke noundef i32 @_ZNK12VectorFilter6lookupEi(ptr noundef nonnull align 8 dereferenceable(52) %2, i32 noundef %31)
          to label %34 unwind label %26

34:                                               ; preds = %32
  call void @_ZN12VectorFilterD1Ev(ptr noundef nonnull align 8 dereferenceable(52) %2) #19
  br label %35

35:                                               ; preds = %5, %7, %1, %34
  %.0 = phi i32 [ %33, %34 ], [ 0, %1 ], [ 0, %7 ], [ 0, %5 ]
  ret i32 %.0
}